(dp0
((I4
I10
tp1
S'inoy'
p2
(S'lz'
p3
F0.0
tp4
tp5
(dp6
S'files'
p7
(lp8
S'Be10inoy_16t10_0_rad_noshared'
p9
aS'Be10inoy_17t10_0_rad_noshared'
p10
aS'Be10inoy_18t10_0_rad_noshared'
p11
asS'rp'
p12
(lp13
(F16.0
I0
F2.18974
tp14
a(F16.0
I2
F2.04546
tp15
a(F16.0
I4
F2.03043
tp16
a(F16.0
I6
F2.02035
tp17
a(F16.0
I8
F2.02627
tp18
a(F17.0
I0
F2.12436
tp19
a(F17.0
I2
F1.99259
tp20
a(F17.0
I4
F1.98682
tp21
a(F17.0
I6
F1.98546
tp22
a(F17.0
I8
F1.99857
tp23
a(F18.0
I0
F2.06451
tp24
a(F18.0
I2
F1.94537
tp25
a(F18.0
I4
F1.94861
tp26
a(F18.0
I6
F1.95582
tp27
a(F18.0
I8
F1.97555
tp28
asS'dimgs'
p29
(lp30
(I0
I3
I8
I38
tp31
a(I2
I10
I40
I6809
tp32
a(I4
I21
I112
I277243
tp33
a(I6
I36
I240
I5776077
tp34
a(I8
I55
I440
I79335725
tp35
asS'rc'
p36
(lp37
(F16.0
I0
F2.3404243776717077
tp38
a(F16.0
I2
F2.206021670700449
tp39
a(F16.0
I4
F2.1920928321811557
tp40
a(F16.0
I6
F2.1827595200800296
tp41
a(F16.0
I8
F2.188240186291258
tp42
a(F17.0
I0
F2.279370616990576
tp43
a(F17.0
I2
F2.1570906119354376
tp44
a(F17.0
I4
F2.1517617694345255
tp45
a(F17.0
I6
F2.1505060826698448
tp46
a(F17.0
I8
F2.1626157876284915
tp47
a(F18.0
I0
F2.2236965935351884
tp48
a(F18.0
I2
F2.1135490145487523
tp49
a(F18.0
I4
F2.116531580699896
tp50
a(F18.0
I6
F2.1231714185152364
tp51
a(F18.0
I8
F2.1413600357016103
tp52
asS'e'
p53
(lp54
(F16.0
I0
F-68.92755
tp55
a(F16.0
I2
F-60.92479
tp56
a(F16.0
I4
F-61.20254
tp57
a(F16.0
I6
F-61.77439
tp58
a(F16.0
I8
F-62.58739
tp59
a(F17.0
I0
F-70.64354
tp60
a(F17.0
I2
F-61.80287
tp61
a(F17.0
I4
F-61.84184
tp62
a(F17.0
I6
F-62.2276
tp63
a(F17.0
I8
F-62.93745
tp64
a(F18.0
I0
F-72.10545
tp65
a(F18.0
I2
F-62.39331
tp66
a(F18.0
I4
F-62.20897
tp67
a(F18.0
I6
F-62.44899
tp68
a(F18.0
I8
F-63.09874
tp69
asS'rn'
p70
(lp71
(F16.0
I0
F2.28625
tp72
a(F16.0
I2
F2.17118
tp73
a(F16.0
I4
F2.16933
tp74
a(F16.0
I6
F2.16897
tp75
a(F16.0
I8
F2.18404
tp76
a(F17.0
I0
F2.21799
tp77
a(F17.0
I2
F2.11371
tp78
a(F17.0
I4
F2.12047
tp79
a(F17.0
I6
F2.12865
tp80
a(F17.0
I8
F2.15118
tp81
a(F18.0
I0
F2.1555
tp82
a(F18.0
I2
F2.06218
tp83
a(F18.0
I4
F2.07744
tp84
a(F18.0
I6
F2.09409
tp85
a(F18.0
I8
F2.12361
tp86
ass((I4
I10
tp87
S'cdb'
p88
(S'lz'
p89
F0.0
tp90
tp91
(dp92
g7
(lp93
S'Be10cdb2k_06.14_0p_4_2p'
p94
aS'Be10cdb2k_06.14_0p_8'
p95
aS'Be10cdb2k_06.14_1p_2'
p96
aS'Be10cdb_06.14_0p_4_2p'
p97
aS'Be10cdb_06.14_0p_8'
p98
aS'Be10cdb_06.14_1p_2'
p99
aS'Be10cdb_06.14t8_2'
p100
aS'Be10cdb_08.13'
p101
aS'Be10cdb_08.13t10_02_trdens'
p102
aS'Be10cdb_10t10_022_e2'
p103
aS'Be10cdb_11t10_022_e2'
p104
aS'Be10cdb_12t10_022_e2'
p105
aS'Be10cdb_12t10_0_rad_noshared'
p106
aS'Be10cdb_12t12_022_e2_restart'
p107
aS'Be10cdb_13t10_022_e2m1'
p108
aS'Be10cdb_13t10_0_rad_noJpivot_RVI1'
p109
aS'Be10cdb_13t10_0_rad_noshared'
p110
aS'Be10cdb_13t12_022_e2'
p111
aS'Be10cdb_13t12_022_e2_crashed'
p112
aS'Be10cdb_13t12_0_rad'
p113
aS'Be10cdb_13t12_0_rad_restart'
p114
aS'Be10cdb_14t10_022_e2'
p115
aS'Be10cdb_14t10_0_rad_noshared'
p116
aS'Be10cdb_14t12_02_e2_restart2'
p117
aS'Be10cdb_15t12_022_e2'
p118
aS'Be10cdb_15t12_022_e2_crashed'
p119
aS'Be10cdb_13t10_022_e2m1'
p120
asg12
(lp121
(F12.0
I0
F2.5285
tp122
a(F12.0
I2
F2.33393
tp123
a(F12.0
I4
F2.2836
tp124
a(F12.0
I6
F2.24818
tp125
a(F12.0
I8
F2.23752
tp126
a(F13.0
I0
F2.4293
tp127
a(F13.0
I2
F2.24876
tp128
a(F13.0
I4
F2.2101
tp129
a(F13.0
I6
F2.18632
tp130
a(F13.0
I8
F2.18754
tp131
a(F14.0
I0
F2.34093
tp132
a(F14.0
I2
F2.17422
tp133
a(F14.0
I4
F2.14749
tp134
a(F14.0
I6
F2.13598
tp135
a(F14.0
I8
F2.14849
tp136
asS'q'
p137
(lp138
(F10.0
I0
F2.20951
tp139
a(F10.0
I2
F2.77784
tp140
a(F10.0
I4
F5.55351
tp141
a(F10.0
I6
F-1.67197
tp142
a(F10.0
I8
F-2.66308
tp143
a(F11.0
I0
F1.5171
tp144
a(F11.0
I2
F-1.20041
tp145
a(F11.0
I4
F-5.29539
tp146
a(F11.0
I6
F-4.46768
tp147
a(F11.0
I8
F-4.43531
tp148
a(F12.0
I0
F0.74896
tp149
a(F12.0
I2
F-5.0398
tp150
a(F12.0
I4
F-5.23726
tp151
a(F12.0
I6
F-4.87727
tp152
a(F12.0
I8
F-4.85721
tp153
a(F12.0
I10
F-4.94024
tp154
a(F13.0
I0
F-0.13086
tp155
a(F13.0
I2
F-5.2414
tp156
a(F13.0
I4
F-5.00318
tp157
a(F13.0
I6
F-4.87286
tp158
a(F13.0
I8
F-4.93318
tp159
a(F13.0
I10
F-5.06895
tp160
a(F14.0
I0
F-1.11467
tp161
a(F14.0
I2
F-4.91204
tp162
a(F14.0
I4
F-4.77509
tp163
a(F14.0
I6
F-4.77856
tp164
a(F14.0
I8
F-4.90842
tp165
a(F14.0
I10
F-5.0827
tp166
a(F15.0
I0
F-2.09698
tp167
a(F15.0
I2
F-4.59437
tp168
a(F15.0
I4
F-4.57204
tp169
a(F15.0
I6
F-4.66866
tp170
a(F15.0
I8
F-4.85395
tp171
a(F15.0
I10
F-5.05684
tp172
asg29
(lp173
(I0
I3
I8
I38
tp174
a(I2
I10
I40
I6809
tp175
a(I4
I21
I112
I277243
tp176
a(I6
I36
I240
I5776077
tp177
a(I8
I55
I440
I79335725
tp178
a(I10
I78
I728
I812233239
tp179
asg36
(lp180
(F12.0
I0
F2.660063392101775
tp181
a(F12.0
I2
F2.4758542454878074
tp182
a(F12.0
I4
F2.4284674097051417
tp183
a(F12.0
I6
F2.395190663057954
tp184
a(F12.0
I8
F2.3851877809514286
tp185
a(F13.0
I0
F2.56595469367641
tp186
a(F13.0
I2
F2.395735072498627
tp187
a(F13.0
I4
F2.3594844797116172
tp188
a(F13.0
I6
F2.33722488057953
tp189
a(F13.0
I8
F2.3383661500286905
tp190
a(F14.0
I0
F2.482454081126175
tp191
a(F14.0
I2
F2.3259100602559855
tp192
a(F14.0
I4
F2.300942915437061
tp193
a(F14.0
I6
F2.290204261719902
tp194
a(F14.0
I8
F2.3018762521256435
tp195
asg53
(lp196
(F10.0
I2
F-49.75968
tp197
a(F10.0
I4
F-51.02778
tp198
a(F10.0
I6
F-52.44834
tp199
a(F10.0
I8
F-53.6284
tp200
a(F11.0
I0
F-57.03668
tp201
a(F11.0
I2
F-52.54296
tp202
a(F11.0
I4
F-53.55882
tp203
a(F11.0
I6
F-54.58814
tp204
a(F11.0
I8
F-55.32984
tp205
a(F12.0
I0
F-60.06358
tp206
a(F12.0
I2
F-54.91504
tp207
a(F12.0
I4
F-55.58334
tp208
a(F12.0
I6
F-56.14927
tp209
a(F12.0
I8
F-56.42542
tp210
a(F12.0
I10
F-56.33989
tp211
a(F13.0
I0
F-62.7905
tp212
a(F13.0
I2
F-56.87565
tp213
a(F13.0
I4
F-57.11509
tp214
a(F13.0
I6
F-57.17317
tp215
a(F13.0
I8
F-56.99316
tp216
a(F13.0
I10
F-56.53814
tp217
a(F14.0
I0
F-65.21635
tp218
a(F14.0
I2
F-58.4274
tp219
a(F14.0
I4
F-58.17394
tp220
a(F14.0
I6
F-57.7106
tp221
a(F14.0
I8
F-57.11678
tp222
a(F14.0
I10
F-56.37236
tp223
a(F15.0
I0
F-67.33073
tp224
a(F15.0
I2
F-59.56483
tp225
a(F15.0
I4
F-58.77371
tp226
a(F15.0
I6
F-57.80581
tp227
a(F15.0
I8
F-56.86711
tp228
a(F15.0
I10
F-55.92378
tp229
asg70
(lp230
(F12.0
I0
F2.63994
tp231
a(F12.0
I2
F2.48226
tp232
a(F12.0
I4
F2.44936
tp233
a(F12.0
I6
F2.42557
tp234
a(F12.0
I8
F2.4241
tp235
a(F13.0
I0
F2.53637
tp236
a(F13.0
I2
F2.39073
tp237
a(F13.0
I4
F2.36807
tp238
a(F13.0
I6
F2.35515
tp239
a(F13.0
I8
F2.36513
tp240
a(F14.0
I0
F2.44411
tp241
a(F14.0
I2
F2.31044
tp242
a(F14.0
I4
F2.29848
tp243
a(F14.0
I6
F2.29723
tp244
a(F14.0
I8
F2.31824
tp245
ass.