(dp0
((I3
I6
tp1
S'n3lo'
p2
(S'srg'
p3
F2.0
tp4
tp5
(dp6
S'files'
p7
(lp8
S'Li6n3lo_16_L2.0_t14_0_radii_SRG'
p9
aS'Li6n3lo_18_L2.0_t14_0_radii_SRG'
p10
aS'Li6n3lo_18_L2.0_t16_0_radii_SRG_continue'
p11
aS'Li6n3lo_20_L2.0_t14_0_radii_SRG'
p12
aS'Li6n3lo_22_L2.0_t14_0_radii_SRG'
p13
asS'q'
p14
(lp15
sS'rp'
p16
(lp17
(F16.0
I0
F2.0257800000000001
tp18
a(F16.0
I2
F2.0171999999999999
tp19
a(F16.0
I4
F2.0589
tp20
a(F16.0
I6
F2.0911
tp21
a(F16.0
I8
F2.1196600000000001
tp22
a(F16.0
I10
F2.1472699999999998
tp23
a(F16.0
I12
F2.1735099999999998
tp24
a(F18.0
I0
F1.9099299999999999
tp25
a(F18.0
I2
F1.94617
tp26
a(F18.0
I4
F2.0004200000000001
tp27
a(F18.0
I6
F2.0474299999999999
tp28
a(F18.0
I8
F2.0844200000000002
tp29
a(F18.0
I10
F2.1191900000000001
tp30
a(F18.0
I12
F2.1523599999999998
tp31
a(F18.0
I14
F2.1824300000000001
tp32
a(F20.0
I0
F1.81192
tp33
a(F20.0
I2
F1.88811
tp34
a(F20.0
I4
F1.9518899999999999
tp35
a(F20.0
I6
F2.008
tp36
a(F20.0
I8
F2.0523600000000002
tp37
a(F20.0
I10
F2.0933899999999999
tp38
a(F20.0
I12
F2.1313499999999999
tp39
a(F22.0
I0
F1.72759
tp40
a(F22.0
I2
F1.8368500000000001
tp41
a(F22.0
I4
F1.90862
tp42
a(F22.0
I6
F1.97062
tp43
a(F22.0
I8
F2.0219100000000001
tp44
a(F22.0
I10
F2.06799
tp45
a(F22.0
I12
F2.10887
tp46
asS'mu'
p47
(lp48
sS'dimgs'
p49
(lp50
(I0
I3
I8
I8
tp51
a(I2
I10
I40
I711
tp52
a(I4
I21
I112
I15764
tp53
a(I6
I36
I240
I186894
tp54
a(I8
I55
I440
I1510834
tp55
a(I10
I78
I728
I9357885
tp56
a(I12
I105
I1120
I47495896
tp57
a(I14
I136
I1632
I206232584
tp58
asS'rc'
p59
(lp60
(F16.0
I0
F2.1877864631631674
tp61
a(F16.0
I2
F2.1798442237921498
tp62
a(F16.0
I4
F2.2184891728381277
tp63
a(F16.0
I6
F2.2484048145296258
tp64
a(F16.0
I8
F2.2749908825311809
tp65
a(F16.0
I10
F2.3007375888831825
tp66
a(F16.0
I12
F2.325246378365097
tp67
a(F18.0
I0
F2.080975157203949
tp68
a(F18.0
I2
F2.1142853801935066
tp69
a(F18.0
I4
F2.1643255707956697
tp70
a(F18.0
I6
F2.2078484107610286
tp71
a(F18.0
I8
F2.2421935100253951
tp72
a(F18.0
I10
F2.2745529794005681
tp73
a(F18.0
I12
F2.3054887919050917
tp74
a(F18.0
I14
F2.3335864468452847
tp75
a(F20.0
I0
F1.991401287134263
tp76
a(F20.0
I2
F2.0609668537121117
tp77
a(F20.0
I4
F2.1195517384815123
tp78
a(F20.0
I6
F2.1713334612629174
tp79
a(F20.0
I8
F2.2124209747694947
tp80
a(F20.0
I10
F2.2505347569188974
tp81
a(F20.0
I12
F2.2858866600293202
tp82
a(F22.0
I0
F1.9149914381270741
tp83
a(F22.0
I2
F2.0141109508912365
tp84
a(F22.0
I4
F2.0797728973135508
tp85
a(F22.0
I6
F2.1368126226695687
tp86
a(F22.0
I8
F2.1842035271695726
tp87
a(F22.0
I10
F2.2269278479780166
tp88
a(F22.0
I12
F2.2649409875093878
tp89
asS'be2'
p90
(lp91
sS'e'
p92
(lp93
(F16.0
I0
F-13.833299999999999
tp94
a(F16.0
I2
F-20.649899999999999
tp95
a(F16.0
I4
F-26.110679999999999
tp96
a(F16.0
I6
F-28.841799999999999
tp97
a(F16.0
I8
F-30.39556
tp98
a(F16.0
I10
F-31.30932
tp99
a(F16.0
I12
F-31.810860000000002
tp100
a(F18.0
I0
F-14.22653
tp101
a(F18.0
I2
F-21.376110000000001
tp102
a(F18.0
I4
F-26.633970000000001
tp103
a(F18.0
I6
F-29.261880000000001
tp104
a(F18.0
I8
F-30.701329999999999
tp105
a(F18.0
I10
F-31.49202
tp106
a(F18.0
I12
F-31.892749999999999
tp107
a(F18.0
I14
F-32.095170000000003
tp108
a(F20.0
I0
F-13.75295
tp109
a(F20.0
I2
F-21.53256
tp110
a(F20.0
I4
F-26.74241
tp111
a(F20.0
I6
F-29.408609999999999
tp112
a(F20.0
I8
F-30.80208
tp113
a(F20.0
I10
F-31.51388
tp114
a(F20.0
I12
F-31.872250000000001
tp115
a(F22.0
I0
F-12.41362
tp116
a(F22.0
I2
F-21.218789999999998
tp117
a(F22.0
I4
F-26.550750000000001
tp118
a(F22.0
I6
F-29.341640000000002
tp119
a(F22.0
I8
F-30.741849999999999
tp120
a(F22.0
I10
F-31.427790000000002
tp121
a(F22.0
I12
F-31.79016
tp122
asS'rn'
p123
(lp124
(F16.0
I0
F2.0257800000000001
tp125
a(F16.0
I2
F2.0093100000000002
tp126
a(F16.0
I4
F2.0499299999999998
tp127
a(F16.0
I6
F2.0804800000000001
tp128
a(F16.0
I8
F2.1081699999999999
tp129
a(F16.0
I10
F2.1350099999999999
tp130
a(F16.0
I12
F2.1606100000000001
tp131
a(F18.0
I0
F1.9099299999999999
tp132
a(F18.0
I2
F1.93872
tp133
a(F18.0
I4
F1.9917800000000001
tp134
a(F18.0
I6
F2.0373299999999999
tp135
a(F18.0
I8
F2.0733899999999998
tp136
a(F18.0
I10
F2.1073400000000002
tp137
a(F18.0
I12
F2.13978
tp138
a(F18.0
I14
F2.1692499999999999
tp139
a(F20.0
I0
F1.81192
tp140
a(F20.0
I2
F1.88114
tp141
a(F20.0
I4
F1.9436199999999999
tp142
a(F20.0
I6
F1.99841
tp143
a(F20.0
I8
F2.0417999999999998
tp144
a(F20.0
I10
F2.08195
tp145
a(F20.0
I12
F2.1191300000000002
tp146
a(F22.0
I0
F1.72759
tp147
a(F22.0
I2
F1.83039
tp148
a(F22.0
I4
F1.9007400000000001
tp149
a(F22.0
I6
F1.9615199999999999
tp150
a(F22.0
I8
F2.01179
tp151
a(F22.0
I10
F2.0569500000000001
tp152
a(F22.0
I12
F2.0970499999999999
tp153
asS'obs'
p154
(dp155
g92
(lp156
(F18.0
I14
F-32.095170000000003
F0.081889999999997798
F-0.2024200000000036
tp157
asg123
(lp158
(F18.0
I14
F2.1692499999999999
F0.041479999999999961
F0.029469999999999885
tp159
asg16
(lp160
(F18.0
I14
F2.1824300000000001
F0.042159999999999975
F0.030070000000000263
tp161
asg59
(lp162
(F18.0
I14
F2.3335864468452847
F0.039359718335776783
F0.028097654940193006
tp163
assS'eexc'
p164
(lp165
ss((I3
I6
tp166
g2
(g3
F1.8
tp167
tp168
(dp169
g7
(lp170
S'Li6n3lo_16_L1.8_t14_0_radii_SRG'
p171
aS'Li6n3lo_18_L1.8_t14_0_radii_SRG'
p172
aS'Li6n3lo_20_L1.8_t14_0_radii_SRG'
p173
aS'Li6n3lo_22_L1.8_t14_0_radii_SRG'
p174
asg14
(lp175
sg16
(lp176
(F16.0
I0
F2.0257800000000001
tp177
a(F16.0
I2
F2.0068000000000001
tp178
a(F16.0
I4
F2.0447600000000001
tp179
a(F16.0
I6
F2.07883
tp180
a(F16.0
I8
F2.1137100000000002
tp181
a(F16.0
I10
F2.1470500000000001
tp182
a(F16.0
I12
F2.1766399999999999
tp183
a(F18.0
I0
F1.9099299999999999
tp184
a(F18.0
I2
F1.93859
tp185
a(F18.0
I4
F1.99207
tp186
a(F18.0
I6
F2.0424600000000002
tp187
a(F18.0
I8
F2.0856499999999998
tp188
a(F18.0
I10
F2.1244100000000001
tp189
a(F18.0
I12
F2.15781
tp190
a(F20.0
I0
F1.81192
tp191
a(F20.0
I2
F1.88324
tp192
a(F20.0
I4
F1.9484600000000001
tp193
a(F20.0
I6
F2.0084200000000001
tp194
a(F20.0
I8
F2.0580500000000002
tp195
a(F20.0
I10
F2.1008100000000001
tp196
a(F20.0
I12
F2.1367799999999999
tp197
a(F22.0
I0
F1.72759
tp198
a(F22.0
I2
F1.83413
tp199
a(F22.0
I4
F1.9089700000000001
tp200
a(F22.0
I6
F1.97492
tp201
a(F22.0
I8
F2.02983
tp202
a(F22.0
I10
F2.0757500000000002
tp203
a(F22.0
I12
F2.1137100000000002
tp204
asg47
(lp205
sg49
(lp206
(I0
I3
I8
I8
tp207
a(I2
I10
I40
I711
tp208
a(I4
I21
I112
I15764
tp209
a(I6
I36
I240
I186894
tp210
a(I8
I55
I440
I1510834
tp211
a(I10
I78
I728
I9357885
tp212
a(I12
I105
I1120
I47495896
tp213
asg59
(lp214
(F16.0
I0
F2.1877864631631674
tp215
a(F16.0
I2
F2.1702237764802046
tp216
a(F16.0
I4
F2.2053726346356983
tp217
a(F16.0
I6
F2.2369978026140305
tp218
a(F16.0
I8
F2.269448162902163
tp219
a(F16.0
I10
F2.300532265042158
tp220
a(F16.0
I12
F2.3281723925860818
tp221
a(F18.0
I0
F2.080975157203949
tp222
a(F18.0
I2
F2.1073101784265176
tp223
a(F18.0
I4
F2.1566102765451158
tp224
a(F18.0
I6
F2.2032403072747195
tp225
a(F18.0
I8
F2.243337006002442
tp226
a(F18.0
I10
F2.2794172167683566
tp227
a(F18.0
I12
F2.3105776325629055
tp228
a(F20.0
I0
F1.991401287134263
tp229
a(F20.0
I2
F2.0565062357308816
tp230
a(F20.0
I4
F2.1163934822239461
tp231
a(F20.0
I6
F2.17172187362931
tp232
a(F20.0
I8
F2.217700341006422
tp233
a(F20.0
I10
F2.2574382950813963
tp234
a(F20.0
I12
F2.2909504072327711
tp235
a(F22.0
I0
F1.9149914381270741
tp236
a(F22.0
I2
F2.0116306462419984
tp237
a(F22.0
I4
F2.0800940990493677
tp238
a(F22.0
I6
F2.1407788317339094
tp239
a(F22.0
I8
F2.1915370927502007
tp240
a(F22.0
I10
F2.2341358648255931
tp241
a(F22.0
I12
F2.269448162902163
tp242
asg90
(lp243
sg92
(lp244
(F16.0
I0
F-17.169709999999998
tp245
a(F16.0
I2
F-23.916399999999999
tp246
a(F16.0
I4
F-28.751339999999999
tp247
a(F16.0
I6
F-30.82452
tp248
a(F16.0
I8
F-31.828759999999999
tp249
a(F16.0
I10
F-32.325029999999998
tp250
a(F16.0
I12
F-32.56156
tp251
a(F18.0
I0
F-17.745650000000001
tp252
a(F18.0
I2
F-24.63832
tp253
a(F18.0
I4
F-29.11936
tp254
a(F18.0
I6
F-31.014530000000001
tp255
a(F18.0
I8
F-31.906490000000002
tp256
a(F18.0
I10
F-32.33493
tp257
a(F18.0
I12
F-32.541919999999998
tp258
a(F20.0
I0
F-17.409459999999999
tp259
a(F20.0
I2
F-24.765440000000002
tp260
a(F20.0
I4
F-29.087869999999999
tp261
a(F20.0
I6
F-30.97391
tp262
a(F20.0
I8
F-31.84488
tp263
a(F20.0
I10
F-32.260629999999999
tp264
a(F20.0
I12
F-32.477119999999999
tp265
a(F22.0
I0
F-16.177980000000002
tp266
a(F22.0
I2
F-24.41686
tp267
a(F22.0
I4
F-28.78256
tp268
a(F22.0
I6
F-30.765149999999998
tp269
a(F22.0
I8
F-31.681429999999999
tp270
a(F22.0
I10
F-32.13015
tp271
a(F22.0
I12
F-32.380249999999997
tp272
asg123
(lp273
(F16.0
I0
F2.0257800000000001
tp274
a(F16.0
I2
F1.9992399999999999
tp275
a(F16.0
I4
F2.0359600000000002
tp276
a(F16.0
I6
F2.0683600000000002
tp277
a(F16.0
I8
F2.1022400000000001
tp278
a(F16.0
I10
F2.1347399999999999
tp279
a(F16.0
I12
F2.1636600000000001
tp280
a(F18.0
I0
F1.9099299999999999
tp281
a(F18.0
I2
F1.9314199999999999
tp282
a(F18.0
I4
F1.9835499999999999
tp283
a(F18.0
I6
F2.03241
tp284
a(F18.0
I8
F2.0745800000000001
tp285
a(F18.0
I10
F2.11246
tp286
a(F18.0
I12
F2.1451500000000001
tp287
a(F20.0
I0
F1.81192
tp288
a(F20.0
I2
F1.87652
tp289
a(F20.0
I4
F1.9402600000000001
tp290
a(F20.0
I6
F1.9988300000000001
tp291
a(F20.0
I8
F2.0474000000000001
tp292
a(F20.0
I10
F2.08928
tp293
a(F20.0
I12
F2.1245099999999999
tp294
a(F22.0
I0
F1.72759
tp295
a(F22.0
I2
F1.8279099999999999
tp296
a(F22.0
I4
F1.9011499999999999
tp297
a(F22.0
I6
F1.9658
tp298
a(F22.0
I8
F2.0196299999999998
tp299
a(F22.0
I10
F2.0646599999999999
tp300
a(F22.0
I12
F2.1018699999999999
tp301
asg154
(dp302
g92
(lp303
(F16.0
I12
F-32.56156
F32.380249999999997
F-0.23653000000000191
tp304
a(F18.0
I12
F-32.541919999999998
F0.084440000000000737
F-0.20698999999999756
tp305
a(F20.0
I12
F-32.477119999999999
F0.16167000000000087
F-0.21649000000000029
tp306
a(F22.0
I12
F-32.380249999999997
F32.380249999999997
F-0.25009999999999621
tp307
asg123
(lp308
(F16.0
I12
F2.1636600000000001
F2.1018699999999999
F0.028920000000000279
tp309
a(F18.0
I12
F2.1451500000000001
F0.03915000000000024
F0.032690000000000108
tp310
a(F20.0
I12
F2.1245099999999999
F0.043280000000000207
F0.035229999999999873
tp311
a(F22.0
I12
F2.1018699999999999
F2.1018699999999999
F0.037209999999999965
tp312
asg16
(lp313
(F16.0
I12
F2.1766399999999999
F2.1137100000000002
F0.029589999999999783
tp314
a(F18.0
I12
F2.15781
F0.039860000000000007
F0.033399999999999874
tp315
a(F20.0
I12
F2.1367799999999999
F0.044099999999999806
F0.035969999999999835
tp316
a(F22.0
I12
F2.1137100000000002
F2.1137100000000002
F0.037959999999999994
tp317
asg59
(lp318
(F16.0
I12
F2.3281723925860818
F2.269448162902163
F0.027640127543923754
tp319
a(F18.0
I12
F2.3105776325629055
F0.037221985353310671
F0.031160415794548868
tp320
a(F20.0
I12
F2.2909504072327711
F0.04112946966074249
F0.03351211215137484
tp321
a(F22.0
I12
F2.269448162902163
F2.269448162902163
F0.035312298076569881
tp322
assg164
(lp323
ss((I3
I6
tp324
g2
(g3
F2.2000000000000002
tp325
tp326
(dp327
g7
(lp328
S'Li6n3lo_16_L2.2_t14_0_radii_SRG'
p329
aS'Li6n3lo_18_L2.2_t14_0_radii_SRG'
p330
aS'Li6n3lo_20_L2.2_t14_0_radii_SRG'
p331
aS'Li6n3lo_22_L2.2_t14_0_radii_SRG'
p332
asg14
(lp333
sg16
(lp334
(F16.0
I0
F2.0257800000000001
tp335
a(F16.0
I2
F2.0330400000000002
tp336
a(F16.0
I4
F2.0802399999999999
tp337
a(F16.0
I6
F2.1132
tp338
a(F16.0
I8
F2.13645
tp339
a(F16.0
I10
F2.1566700000000001
tp340
a(F16.0
I12
F2.1758099999999998
tp341
a(F18.0
I0
F1.9099299999999999
tp342
a(F18.0
I2
F1.9595899999999999
tp343
a(F18.0
I4
F2.0166499999999998
tp344
a(F18.0
I6
F2.0623999999999998
tp345
a(F18.0
I8
F2.0925400000000001
tp346
a(F18.0
I10
F2.1201300000000001
tp347
a(F18.0
I12
F2.1487599999999998
tp348
a(F20.0
I0
F1.81192
tp349
a(F20.0
I2
F1.89886
tp350
a(F20.0
I4
F1.9634100000000001
tp351
a(F20.0
I6
F2.0167099999999998
tp352
a(F20.0
I8
F2.05402
tp353
a(F20.0
I10
F2.0893799999999998
tp354
a(F20.0
I12
F2.1258400000000002
tp355
a(F22.0
I0
F1.72759
tp356
a(F22.0
I2
F1.8451200000000001
tp357
a(F22.0
I4
F1.9161300000000001
tp358
a(F22.0
I6
F1.9743599999999999
tp359
a(F22.0
I8
F2.0192999999999999
tp360
a(F22.0
I10
F2.0618300000000001
tp361
a(F22.0
I12
F2.1034700000000002
tp362
asg47
(lp363
sg49
(lp364
(I0
I3
I8
I8
tp365
a(I2
I10
I40
I711
tp366
a(I4
I21
I112
I15764
tp367
a(I6
I36
I240
I186894
tp368
a(I8
I55
I440
I1510834
tp369
a(I10
I78
I728
I9357885
tp370
a(I12
I105
I1120
I47495896
tp371
asg59
(lp372
(F16.0
I0
F2.1877864631631674
tp373
a(F16.0
I2
F2.1945105699449257
tp374
a(F16.0
I4
F2.2383081685952004
tp375
a(F16.0
I6
F2.2689731686381838
tp376
a(F16.0
I8
F2.2906426178040085
tp377
a(F16.0
I10
F2.3095130415089673
tp378
a(F16.0
I12
F2.3273964329481989
tp379
a(F18.0
I0
F2.080975157203949
tp380
a(F18.0
I2
F2.126644767726853
tp381
a(F18.0
I4
F2.179335270787861
tp382
a(F18.0
I6
F2.2217377793069999
tp383
a(F18.0
I8
F2.2497441302512606
tp384
a(F18.0
I10
F2.275428798468544
tp385
a(F18.0
I12
F2.3021282626300383
tp386
a(F20.0
I0
F1.991401287134263
tp387
a(F20.0
I2
F2.0708197168271316
tp388
a(F20.0
I4
F2.1301652114566139
tp389
a(F20.0
I6
F2.1793907919645803
tp390
a(F20.0
I8
F2.2139609663225772
tp391
a(F20.0
I10
F2.246805239534571
tp392
a(F20.0
I12
F2.2807500313712596
tp393
a(F22.0
I0
F1.9149914381270741
tp394
a(F22.0
I2
F2.021655958465733
tp395
a(F22.0
I4
F2.0866670019195688
tp396
a(F22.0
I6
F2.1402622291672579
tp397
a(F22.0
I8
F2.1817876821542468
tp398
a(F22.0
I10
F2.221208668473091
tp399
a(F22.0
I12
F2.2599139454634112
tp400
asg90
(lp401
sg92
(lp402
(F16.0
I0
F-10.42531
tp403
a(F16.0
I2
F-17.184180000000001
tp404
a(F16.0
I4
F-23.029109999999999
tp405
a(F16.0
I6
F-26.285810000000001
tp406
a(F16.0
I8
F-28.37621
tp407
a(F16.0
I10
F-29.794920000000001
tp408
a(F16.0
I12
F-30.69359
tp409
a(F18.0
I0
F-10.52575
tp410
a(F18.0
I2
F-17.807210000000001
tp411
a(F18.0
I4
F-23.609660000000002
tp412
a(F18.0
I6
F-26.89827
tp413
a(F18.0
I8
F-28.945720000000001
tp414
a(F18.0
I10
F-30.24147
tp415
a(F18.0
I12
F-30.978909999999999
tp416
a(F20.0
I0
F-9.7920599999999993
tp417
a(F20.0
I2
F-17.896100000000001
tp418
a(F20.0
I4
F-23.7898
tp419
a(F20.0
I6
F-27.22944
tp420
a(F20.0
I8
F-29.269739999999999
tp421
a(F20.0
I10
F-30.44631
tp422
a(F20.0
I12
F-31.072310000000002
tp423
a(F22.0
I0
F-8.2179300000000008
tp424
a(F22.0
I2
F-17.534389999999998
tp425
a(F22.0
I4
F-23.671130000000002
tp426
a(F22.0
I6
F-27.327770000000001
tp427
a(F22.0
I8
F-29.382899999999999
tp428
a(F22.0
I10
F-30.473590000000002
tp429
a(F22.0
I12
F-31.048459999999999
tp430
asg123
(lp431
(F16.0
I0
F2.0257800000000001
tp432
a(F16.0
I2
F2.0247600000000001
tp433
a(F16.0
I4
F2.0710000000000002
tp434
a(F16.0
I6
F2.1023399999999999
tp435
a(F16.0
I8
F2.1248499999999999
tp436
a(F16.0
I10
F2.14446
tp437
a(F16.0
I12
F2.1630500000000001
tp438
a(F18.0
I0
F1.9099299999999999
tp439
a(F18.0
I2
F1.95183
tp440
a(F18.0
I4
F2.0078200000000002
tp441
a(F18.0
I6
F2.0521699999999998
tp442
a(F18.0
I8
F2.0815299999999999
tp443
a(F18.0
I10
F2.1084399999999999
tp444
a(F18.0
I12
F2.1363699999999999
tp445
a(F20.0
I0
F1.81192
tp446
a(F20.0
I2
F1.8916299999999999
tp447
a(F20.0
I4
F1.9550000000000001
tp448
a(F20.0
I6
F2.0070700000000001
tp449
a(F20.0
I8
F2.0435500000000002
tp450
a(F20.0
I10
F2.0781200000000002
tp451
a(F20.0
I12
F2.11381
tp452
a(F22.0
I0
F1.72759
tp453
a(F22.0
I2
F1.8384400000000001
tp454
a(F22.0
I4
F1.90815
tp455
a(F22.0
I6
F1.9652799999999999
tp456
a(F22.0
I8
F2.0093000000000001
tp457
a(F22.0
I10
F2.05097
tp458
a(F22.0
I12
F2.09179
tp459
asg154
(dp460
g92
(lp461
(F16.0
I12
F-30.69359
F31.048459999999999
F-0.89866999999999919
tp462
a(F18.0
I12
F-30.978909999999999
F0.37872000000000128
F-0.73743999999999943
tp463
a(F20.0
I12
F-31.072310000000002
F0.093400000000002592
F-0.62600000000000122
tp464
a(F22.0
I12
F-31.048459999999999
F31.048459999999999
F-0.57486999999999711
tp465
asg123
(lp466
(F16.0
I12
F2.1630500000000001
F2.09179
F0.018590000000000106
tp467
a(F18.0
I12
F2.1363699999999999
F0.049240000000000173
F0.02793000000000001
tp468
a(F20.0
I12
F2.11381
F0.044579999999999842
F0.035689999999999777
tp469
a(F22.0
I12
F2.09179
F2.09179
F0.040820000000000078
tp470
asg16
(lp471
(F16.0
I12
F2.1758099999999998
F2.1034700000000002
F0.019139999999999713
tp472
a(F18.0
I12
F2.1487599999999998
F0.049969999999999626
F0.028629999999999711
tp473
a(F20.0
I12
F2.1258400000000002
F0.045289999999999608
F0.036460000000000381
tp474
a(F22.0
I12
F2.1034700000000002
F2.1034700000000002
F0.041640000000000121
tp475
asg59
(lp476
(F16.0
I12
F2.3273964329481989
F2.2599139454634112
F0.017883391439231566
tp477
a(F18.0
I12
F2.3021282626300383
F0.046646401576939223
F0.02669946416149438
tp478
a(F20.0
I12
F2.2807500313712596
F0.042214317166627158
F0.033944791836688637
tp479
a(F22.0
I12
F2.2599139454634112
F2.2599139454634112
F0.038705276990320225
tp480
assg164
(lp481
ss.