(dp0
((I2
I4
tp1
S'n3lo'
p2
(S'srg'
p3
F2.2000000000000002
tp4
tp5
(dp6
S'files'
p7
(lp8
S'He4n3lo_16_L2.2_t12_0_radii_SRG'
p9
aS'He4n3lo_18_L2.2_t12_0_radii_SRG'
p10
aS'He4n3lo_20_L2.2_t12_0_radii_SRG'
p11
aS'He4n3lo_22_L2.2_t12_0_radii_SRG'
p12
asS'q'
p13
(lp14
sS'rp'
p15
(lp16
(F16.0
I2
F1.5376799999999999
tp17
a(F16.0
I4
F1.55
tp18
a(F16.0
I6
F1.5161199999999999
tp19
a(F16.0
I8
F1.50247
tp20
a(F16.0
I10
F1.4935799999999999
tp21
a(F16.0
I12
F1.48001
tp22
a(F18.0
I2
F1.49061
tp23
a(F18.0
I4
F1.51519
tp24
a(F18.0
I6
F1.50301
tp25
a(F18.0
I8
F1.48803
tp26
a(F18.0
I10
F1.48139
tp27
a(F18.0
I12
F1.47132
tp28
a(F20.0
I2
F1.4598100000000001
tp29
a(F20.0
I4
F1.4902899999999999
tp30
a(F20.0
I6
F1.4919500000000001
tp31
a(F20.0
I8
F1.47556
tp32
a(F20.0
I10
F1.4721299999999999
tp33
a(F20.0
I12
F1.4666300000000001
tp34
a(F22.0
I2
F1.4391
tp35
a(F22.0
I4
F1.4700899999999999
tp36
a(F22.0
I6
F1.4802599999999999
tp37
a(F22.0
I8
F1.46583
tp38
a(F22.0
I10
F1.4659
tp39
a(F22.0
I12
F1.4646300000000001
tp40
asS'mu'
p41
(lp42
sS'dimgs'
p43
(lp44
(I0
I1
I2
I1
tp45
a(I2
I6
I20
I49
tp46
a(I4
I15
I70
I698
tp47
a(I6
I28
I168
I5424
tp48
a(I8
I45
I330
I29388
tp49
a(I10
I66
I572
I124674
tp50
a(I12
I91
I910
I442262
tp51
asS'rc'
p52
(lp53
(F16.0
I2
F1.7455900957555872
tp54
a(F16.0
I4
F1.7564523904734795
tp55
a(F16.0
I6
F1.726628174912016
tp56
a(F16.0
I8
F1.7146548051721664
tp57
a(F16.0
I10
F1.7068702986460333
tp58
a(F16.0
I12
F1.6950087315704305
tp59
a(F18.0
I2
F1.7042720358264405
tp60
a(F18.0
I4
F1.7258116166314328
tp61
a(F18.0
I6
F1.715128001083301
tp62
a(F18.0
I8
F1.7020159461356406
tp63
a(F18.0
I10
F1.6962138226355779
tp64
a(F18.0
I12
F1.6874263072501861
tp65
a(F20.0
I2
F1.677399843835691
tp66
a(F20.0
I4
F1.7039921608094326
tp67
a(F20.0
I6
F1.7054441657527226
tp68
a(F20.0
I8
F1.6911245706925317
tp69
a(F20.0
I10
F1.6881326182797367
tp70
a(F20.0
I12
F1.6833385152428491
tp71
a(F22.0
I2
F1.6594076684166552
tp72
a(F22.0
I4
F1.6863539391539368
tp73
a(F22.0
I6
F1.6952270253862753
tp74
a(F22.0
I8
F1.6826415509252111
tp75
a(F22.0
I10
F1.682702531643665
tp76
a(F22.0
I12
F1.6815962764290364
tp77
asS'be2'
p78
(lp79
sS'e'
p80
(lp81
(F16.0
I2
F-19.691400000000002
tp82
a(F16.0
I4
F-23.40738
tp83
a(F16.0
I6
F-25.065290000000001
tp84
a(F16.0
I8
F-26.199459999999998
tp85
a(F16.0
I10
F-27.001670000000001
tp86
a(F16.0
I12
F-27.49634
tp87
a(F18.0
I2
F-20.774709999999999
tp88
a(F18.0
I4
F-24.154019999999999
tp89
a(F18.0
I6
F-25.70355
tp90
a(F18.0
I8
F-26.747969999999999
tp91
a(F18.0
I10
F-27.430019999999999
tp92
a(F18.0
I12
F-27.7529
tp93
a(F20.0
I2
F-21.479669999999999
tp94
a(F20.0
I4
F-24.646070000000002
tp95
a(F20.0
I6
F-26.22522
tp96
a(F20.0
I8
F-27.163599999999999
tp97
a(F20.0
I10
F-27.690100000000001
tp98
a(F20.0
I12
F-27.868310000000001
tp99
a(F22.0
I2
F-21.922329999999999
tp100
a(F22.0
I4
F-24.995809999999999
tp101
a(F22.0
I6
F-26.65615
tp102
a(F22.0
I8
F-27.452570000000001
tp103
a(F22.0
I10
F-27.822690000000001
tp104
a(F22.0
I12
F-27.9117
tp105
asS'rn'
p106
(lp107
(F16.0
I2
F1.5321899999999999
tp108
a(F16.0
I4
F1.5440199999999999
tp109
a(F16.0
I6
F1.50959
tp110
a(F16.0
I8
F1.4960899999999999
tp111
a(F16.0
I10
F1.4872300000000001
tp112
a(F16.0
I12
F1.4737899999999999
tp113
a(F18.0
I2
F1.48512
tp114
a(F18.0
I4
F1.5093300000000001
tp115
a(F18.0
I6
F1.49665
tp116
a(F18.0
I8
F1.48184
tp117
a(F18.0
I10
F1.47519
tp118
a(F18.0
I12
F1.46515
tp119
a(F20.0
I2
F1.4543699999999999
tp120
a(F20.0
I4
F1.4845900000000001
tp121
a(F20.0
I6
F1.4858199999999999
tp122
a(F20.0
I8
F1.4695400000000001
tp123
a(F20.0
I10
F1.4660299999999999
tp124
a(F20.0
I12
F1.46048
tp125
a(F22.0
I2
F1.4338
tp126
a(F22.0
I4
F1.46458
tp127
a(F22.0
I6
F1.47437
tp128
a(F22.0
I8
F1.4599200000000001
tp129
a(F22.0
I10
F1.4598599999999999
tp130
a(F22.0
I12
F1.45852
tp131
asS'obs'
p132
(dp133
g80
(lp134
(F16.0
I12
F-27.49634
F27.9117
F-0.49466999999999928
tp135
a(F18.0
I12
F-27.7529
F0.37197000000000102
F-0.32288000000000139
tp136
a(F20.0
I12
F-27.868310000000001
F0.15879999999999939
F-0.17820999999999998
tp137
a(F22.0
I12
F-27.9117
F27.9117
F-0.089009999999998257
tp138
asg106
(lp139
(F16.0
I12
F1.4737899999999999
F1.45852
F-0.013440000000000119
tp140
a(F18.0
I12
F1.46515
F0.013309999999999933
F-0.010040000000000049
tp141
a(F20.0
I12
F1.46048
F0.0066299999999999137
F-0.0055499999999999439
tp142
a(F22.0
I12
F1.45852
F1.45852
F-0.0013399999999998968
tp143
asg15
(lp144
(F16.0
I12
F1.48001
F1.4646300000000001
F-0.01356999999999986
tp145
a(F18.0
I12
F1.47132
F0.013379999999999947
F-0.010070000000000023
tp146
a(F20.0
I12
F1.4666300000000001
F0.0066899999999998627
F-0.0054999999999998384
tp147
a(F22.0
I12
F1.4646300000000001
F1.4646300000000001
F-0.0012699999999998823
tp148
asg52
(lp149
(F16.0
I12
F1.6950087315704305
F1.6815962764290364
F-0.011861567075602819
tp150
a(F18.0
I12
F1.6874263072501861
F0.011670216327581473
F-0.0087875153853917976
tp151
a(F20.0
I12
F1.6833385152428491
F0.0058300308211496343
F-0.0047941030368876536
tp152
a(F22.0
I12
F1.6815962764290364
F1.6815962764290364
F-0.0011062552146285931
tp153
assS'eexc'
p154
(lp155
ss((I2
I4
tp156
g2
(g3
F1.8
tp157
tp158
(dp159
g7
(lp160
S'He4n3lo_16_L1.8_t12_0_radii_SRG'
p161
aS'He4n3lo_18_L1.8_t12_0_radii_SRG'
p162
aS'He4n3lo_20_L1.8_t12_0_radii_SRG'
p163
aS'He4n3lo_22_L1.8_t12_0_radii_SRG'
p164
asg13
(lp165
sg15
(lp166
(F16.0
I2
F1.5205500000000001
tp167
a(F16.0
I4
F1.51149
tp168
a(F16.0
I6
F1.47983
tp169
a(F16.0
I8
F1.4717100000000001
tp170
a(F16.0
I10
F1.46835
tp171
a(F16.0
I12
F1.4653799999999999
tp172
a(F18.0
I2
F1.4735199999999999
tp173
a(F18.0
I4
F1.4819100000000001
tp174
a(F18.0
I6
F1.47167
tp175
a(F18.0
I8
F1.4659599999999999
tp176
a(F18.0
I10
F1.46533
tp177
a(F18.0
I12
F1.46418
tp178
a(F20.0
I2
F1.4438500000000001
tp179
a(F20.0
I4
F1.4627699999999999
tp180
a(F20.0
I6
F1.466
tp181
a(F20.0
I8
F1.4620200000000001
tp182
a(F20.0
I10
F1.46346
tp183
a(F20.0
I12
F1.4635499999999999
tp184
a(F22.0
I2
F1.4249799999999999
tp185
a(F22.0
I4
F1.4484399999999999
tp186
a(F22.0
I6
F1.46
tp187
a(F22.0
I8
F1.4590700000000001
tp188
a(F22.0
I10
F1.462
tp189
a(F22.0
I12
F1.4628399999999999
tp190
asg41
(lp191
sg43
(lp192
(I0
I1
I2
I1
tp193
a(I2
I6
I20
I49
tp194
a(I4
I15
I70
I698
tp195
a(I6
I28
I168
I5424
tp196
a(I8
I45
I330
I29388
tp197
a(I10
I66
I572
I124674
tp198
a(I12
I91
I910
I442262
tp199
asg52
(lp200
(F16.0
I2
F1.7305193736274669
tp201
a(F16.0
I4
F1.7225640830169424
tp202
a(F16.0
I6
F1.6948515654475467
tp203
a(F16.0
I8
F1.6877663713026161
tp204
a(F16.0
I10
F1.6848372985246973
tp205
a(F16.0
I12
F1.6822495487887639
tp206
a(F18.0
I2
F1.6893448997762415
tp207
a(F18.0
I4
F1.6966679840499141
tp208
a(F18.0
I6
F1.6877314919441422
tp209
a(F18.0
I8
F1.6827548013896736
tp210
a(F18.0
I10
F1.6822059947877965
tp211
a(F18.0
I12
F1.6812043517669111
tp212
a(F20.0
I2
F1.6635287260819995
tp213
a(F20.0
I4
F1.6799765096274411
tp214
a(F20.0
I6
F1.682789648173532
tp215
a(F20.0
I8
F1.6793235186824484
tp216
a(F20.0
I10
F1.6805773328234557
tp217
a(F20.0
I12
F1.6806557061159193
tp218
a(F22.0
I2
F1.6471772826262507
tp219
a(F22.0
I4
F1.6675141479459776
tp220
a(F22.0
I6
F1.6775651999251771
tp221
a(F22.0
I8
F1.676755875164897
tp222
a(F22.0
I10
F1.6793061067000261
tp223
a(F22.0
I12
F1.6800374595823748
tp224
asg78
(lp225
sg80
(lp226
(F16.0
I2
F-23.744029999999999
tp227
a(F16.0
I4
F-26.802969999999998
tp228
a(F16.0
I6
F-27.761559999999999
tp229
a(F16.0
I8
F-28.18168
tp230
a(F16.0
I10
F-28.364039999999999
tp231
a(F16.0
I12
F-28.427890000000001
tp232
a(F18.0
I2
F-24.825099999999999
tp233
a(F18.0
I4
F-27.315940000000001
tp234
a(F18.0
I6
F-28.022680000000001
tp235
a(F18.0
I8
F-28.311499999999999
tp236
a(F18.0
I10
F-28.422699999999999
tp237
a(F18.0
I12
F-28.445989999999998
tp238
a(F20.0
I2
F-25.479980000000001
tp239
a(F20.0
I4
F-27.569749999999999
tp240
a(F20.0
I6
F-28.182210000000001
tp241
a(F20.0
I8
F-28.379149999999999
tp242
a(F20.0
I10
F-28.441770000000002
tp243
a(F20.0
I12
F-28.449459999999998
tp244
a(F22.0
I2
F-25.851109999999998
tp245
a(F22.0
I4
F-27.690729999999999
tp246
a(F22.0
I6
F-28.280709999999999
tp247
a(F22.0
I8
F-28.40896
tp248
a(F22.0
I10
F-28.444459999999999
tp249
a(F22.0
I12
F-28.450669999999999
tp250
asg106
(lp251
(F16.0
I2
F1.51569
tp252
a(F16.0
I4
F1.5060500000000001
tp253
a(F16.0
I6
F1.47393
tp254
a(F16.0
I8
F1.4658
tp255
a(F16.0
I10
F1.4623999999999999
tp256
a(F16.0
I12
F1.45943
tp257
a(F18.0
I2
F1.46861
tp258
a(F18.0
I4
F1.4765200000000001
tp259
a(F18.0
I6
F1.46583
tp260
a(F18.0
I8
F1.4601
tp261
a(F18.0
I10
F1.4594100000000001
tp262
a(F18.0
I12
F1.45824
tp263
a(F20.0
I2
F1.43896
tp264
a(F20.0
I4
F1.45747
tp265
a(F20.0
I6
F1.4602900000000001
tp266
a(F20.0
I8
F1.4562200000000001
tp267
a(F20.0
I10
F1.45757
tp268
a(F20.0
I12
F1.45763
tp269
a(F22.0
I2
F1.4201900000000001
tp270
a(F22.0
I4
F1.44326
tp271
a(F22.0
I6
F1.45442
tp272
a(F22.0
I8
F1.4533400000000001
tp273
a(F22.0
I10
F1.45614
tp274
a(F22.0
I12
F1.45695
tp275
asg132
(dp276
g80
(lp277
(F16.0
I12
F-28.427890000000001
F28.450669999999999
F-0.063850000000002183
tp278
a(F18.0
I12
F-28.445989999999998
F0.02156999999999698
F-0.023289999999999367
tp279
a(F20.0
I12
F-28.449459999999998
F0.0046800000000004616
F-0.007689999999996644
tp280
a(F22.0
I12
F-28.450669999999999
F28.450669999999999
F-0.0062099999999993827
tp281
asg106
(lp282
(F16.0
I12
F1.45943
F1.45695
F-0.0029699999999999172
tp283
a(F18.0
I12
F1.45824
F0.0018000000000000238
F-0.0011700000000001154
tp284
a(F20.0
I12
F1.45763
F0.0012900000000000134
F5.9999999999948983e-05
tp285
a(F22.0
I12
F1.45695
F1.45695
F0.0008099999999999774
tp286
asg15
(lp287
(F16.0
I12
F1.4653799999999999
F1.4628399999999999
F-0.0029700000000001392
tp288
a(F18.0
I12
F1.46418
F0.0018299999999999983
F-0.0011499999999999844
tp289
a(F20.0
I12
F1.4635499999999999
F0.0013400000000001189
F8.9999999999923475e-05
tp290
a(F22.0
I12
F1.4628399999999999
F1.4628399999999999
F0.0008399999999999519
tp291
asg52
(lp292
(F16.0
I12
F1.6822495487887639
F1.6800374595823748
F-0.0025877497359334534
tp293
a(F18.0
I12
F1.6812043517669111
F0.0015938426728445698
F-0.0010016430208854565
tp294
a(F20.0
I12
F1.6806557061159193
F0.0011668921845362501
F7.837329246362934e-05
tp295
a(F22.0
I12
F1.6800374595823748
F1.6800374595823748
F0.00073135288234871254
tp296
assg154
(lp297
ss((I2
I4
tp298
g2
(g3
F2.0
tp299
tp300
(dp301
g7
(lp302
S'He4n3lo_16_L2.0_t12_0_radii_SRG'
p303
aS'He4n3lo_16_L2.0_t14_0_radii_SRG_continue'
p304
aS'He4n3lo_18_L2.0_t12_0_radii_SRG'
p305
aS'He4n3lo_18_L2.0_t14_0_radii_SRG_continue'
p306
aS'He4n3lo_20_L2.0_t12_0_radii_SRG'
p307
aS'He4n3lo_20_L2.0_t14_0_radii_SRG_continue'
p308
aS'He4n3lo_22_L2.0_t12_0_radii_SRG'
p309
asg13
(lp310
sg15
(lp311
(F16.0
I2
F1.52685
tp312
a(F16.0
I4
F1.5277799999999999
tp313
a(F16.0
I6
F1.4934499999999999
tp314
a(F16.0
I8
F1.4821
tp315
a(F16.0
I10
F1.47566
tp316
a(F16.0
I12
F1.4681
tp317
a(F16.0
I14
F1.46488
tp318
a(F18.0
I2
F1.47915
tp319
a(F18.0
I4
F1.49509
tp320
a(F18.0
I6
F1.4825299999999999
tp321
a(F18.0
I8
F1.47207
tp322
a(F18.0
I10
F1.46854
tp323
a(F18.0
I12
F1.4638899999999999
tp324
a(F18.0
I14
F1.4628399999999999
tp325
a(F20.0
I2
F1.44835
tp326
a(F20.0
I4
F1.47278
tp327
a(F20.0
I6
F1.4741899999999999
tp328
a(F20.0
I8
F1.4642900000000001
tp329
a(F20.0
I10
F1.4637500000000001
tp330
a(F20.0
I12
F1.4621599999999999
tp331
a(F20.0
I14
F1.4620500000000001
tp332
a(F22.0
I2
F1.42821
tp333
a(F22.0
I4
F1.4554100000000001
tp334
a(F22.0
I6
F1.4656400000000001
tp335
a(F22.0
I8
F1.4585300000000001
tp336
a(F22.0
I10
F1.46069
tp337
a(F22.0
I12
F1.46132
tp338
asg41
(lp339
sg43
(lp340
(I0
I1
I2
I1
tp341
a(I2
I6
I20
I49
tp342
a(I4
I15
I70
I698
tp343
a(I6
I28
I168
I5424
tp344
a(I8
I45
I330
I29388
tp345
a(I10
I66
I572
I124674
tp346
a(I12
I91
I910
I442262
tp347
a(I14
I120
I1360
I1367312
tp348
asg52
(lp349
(F16.0
I2
F1.7360575804102814
tp350
a(F16.0
I4
F1.7368755650304946
tp351
a(F16.0
I6
F1.7067565445897666
tp352
a(F16.0
I8
F1.6968339370722167
tp353
a(F16.0
I10
F1.6912118245802328
tp354
a(F16.0
I12
F1.6846194258644889
tp355
a(F16.0
I14
F1.6818140249147644
tp356
a(F18.0
I2
F1.6942578677698386
tp357
a(F18.0
I4
F1.7081917656106413
tp358
a(F18.0
I6
F1.6972095335874118
tp359
a(F18.0
I8
F1.6880802957501755
tp360
a(F18.0
I10
F1.685002887712659
tp361
a(F18.0
I12
F1.6809517935086657
tp362
a(F18.0
I14
F1.6800374595823748
tp363
a(F20.0
I2
F1.6674359725338781
tp364
a(F20.0
I4
F1.6886994784152685
tp365
a(F20.0
I6
F1.689929334646866
tp366
a(F20.0
I8
F1.6813001528876397
tp367
a(F20.0
I10
F1.6808298731578994
tp368
a(F20.0
I12
F1.6794454041736515
tp369
a(F20.0
I14
F1.6793496367641849
tp370
a(F22.0
I2
F1.6499723646473596
tp371
a(F22.0
I4
F1.6735720086390069
tp372
a(F22.0
I6
F1.6824760353716781
tp373
a(F22.0
I8
F1.6762860021189703
tp374
a(F22.0
I10
F1.6781657475052933
tp375
a(F22.0
I12
F1.6787141336153693
tp376
asg78
(lp377
sg80
(lp378
(F16.0
I2
F-21.812999999999999
tp379
a(F16.0
I4
F-25.29721
tp380
a(F16.0
I6
F-26.652290000000001
tp381
a(F16.0
I8
F-27.42773
tp382
a(F16.0
I10
F-27.880680000000002
tp383
a(F16.0
I12
F-28.105930000000001
tp384
a(F16.0
I14
F-28.202249999999999
tp385
a(F18.0
I2
F-22.934699999999999
tp386
a(F18.0
I4
F-25.95993
tp387
a(F18.0
I6
F-27.107790000000001
tp388
a(F18.0
I8
F-27.744859999999999
tp389
a(F18.0
I10
F-28.081060000000001
tp390
a(F18.0
I12
F-28.198519999999998
tp391
a(F18.0
I14
F-28.2348
tp392
a(F20.0
I2
F-23.647220000000001
tp393
a(F20.0
I4
F-26.35276
tp394
a(F20.0
I6
F-27.441089999999999
tp395
a(F20.0
I8
F-27.954370000000001
tp396
a(F20.0
I10
F-28.179559999999999
tp397
a(F20.0
I12
F-28.229289999999999
tp398
a(F20.0
I14
F-28.241669999999999
tp399
a(F22.0
I2
F-24.077490000000001
tp400
a(F22.0
I4
F-26.596499999999999
tp401
a(F22.0
I6
F-27.688479999999998
tp402
a(F22.0
I8
F-28.077739999999999
tp403
a(F22.0
I10
F-28.215479999999999
tp404
a(F22.0
I12
F-28.23704
tp405
asg106
(lp406
(F16.0
I2
F1.52172
tp407
a(F16.0
I4
F1.5221100000000001
tp408
a(F16.0
I6
F1.4872700000000001
tp409
a(F16.0
I8
F1.4759899999999999
tp410
a(F16.0
I10
F1.46953
tp411
a(F16.0
I12
F1.462
tp412
a(F16.0
I14
F1.45878
tp413
a(F18.0
I2
F1.4739899999999999
tp414
a(F18.0
I4
F1.4895
tp415
a(F18.0
I6
F1.4764699999999999
tp416
a(F18.0
I8
F1.46607
tp417
a(F18.0
I10
F1.46248
tp418
a(F18.0
I12
F1.4578199999999999
tp419
a(F18.0
I14
F1.45675
tp420
a(F20.0
I2
F1.4432100000000001
tp421
a(F20.0
I4
F1.4673
tp422
a(F20.0
I6
F1.4682999999999999
tp423
a(F20.0
I8
F1.45838
tp424
a(F20.0
I10
F1.4577500000000001
tp425
a(F20.0
I12
F1.45611
tp426
a(F20.0
I14
F1.4559899999999999
tp427
a(F22.0
I2
F1.4231799999999999
tp428
a(F22.0
I4
F1.45008
tp429
a(F22.0
I6
F1.4599200000000001
tp430
a(F22.0
I8
F1.4527000000000001
tp431
a(F22.0
I10
F1.4547300000000001
tp432
a(F22.0
I12
F1.45529
tp433
asg132
(dp434
g80
(lp435
(F16.0
I14
F-28.202249999999999
F28.241669999999999
F-0.096319999999998629
tp436
a(F18.0
I14
F-28.2348
F0.039419999999999789
F-0.036280000000001422
tp437
a(F20.0
I14
F-28.241669999999999
F0.038520000000001886
F-0.01238000000000028
tp438
asg106
(lp439
(F16.0
I14
F1.45878
F1.4559899999999999
F-0.0032200000000000006
tp440
a(F18.0
I14
F1.45675
F0.0027900000000000702
F-0.0010699999999999044
tp441
a(F20.0
I14
F1.4559899999999999
F0.0025299999999999212
F-0.00012000000000012001
tp442
asg15
(lp443
(F16.0
I14
F1.46488
F1.4620500000000001
F-0.0032200000000000006
tp444
a(F18.0
I14
F1.4628399999999999
F0.0028299999999998882
F-0.0010499999999999954
tp445
a(F20.0
I14
F1.4620500000000001
F0.0025699999999999612
F-0.00010999999999983245
tp446
asg52
(lp447
(F16.0
I14
F1.6818140249147644
F1.6793496367641849
F-0.0028054009497244792
tp448
a(F18.0
I14
F1.6800374595823748
F0.0024643881505794774
F-0.00091433392629092225
tp449
a(F20.0
I14
F1.6793496367641849
F0.0022376598932964953
F-9.5767409466596121e-05
tp450
assg154
(lp451
ss.