(dp0
((I2
I6
tp1
S'n3lo'
p2
(S'srg'
p3
F2.0
tp4
tp5
(dp6
S'files'
p7
(lp8
S'He6n3lo_16_L2.0_t14_0_radii_SRG'
p9
aS'He6n3lo_16_L2.0_t16_0_radii_SRG-continue'
p10
aS'He6n3lo_18_L2.0_t14_0_radii_SRG'
p11
aS'He6n3lo_18_L2.0_t16_0_radii_SRG-continue'
p12
aS'He6n3lo_20_L2.0_t14_0_radii_SRG'
p13
aS'He6n3lo_20_L2.0_t16_0_radii_SRG-continue'
p14
aS'He6n3lo_22_L2.0_t14_0_radii_SRG'
p15
asS'q'
p16
(lp17
sS'rp'
p18
(lp19
(F16.0
I2
F1.70764
tp20
a(F16.0
I4
F1.7263599999999999
tp21
a(F16.0
I6
F1.7334400000000001
tp22
a(F16.0
I8
F1.7445999999999999
tp23
a(F16.0
I10
F1.7564500000000001
tp24
a(F16.0
I12
F1.76709
tp25
a(F16.0
I14
F1.7795799999999999
tp26
a(F18.0
I2
F1.6473500000000001
tp27
a(F18.0
I4
F1.6789400000000001
tp28
a(F18.0
I6
F1.70285
tp29
a(F18.0
I8
F1.71939
tp30
a(F18.0
I10
F1.73638
tp31
a(F18.0
I12
F1.7521500000000001
tp32
a(F18.0
I14
F1.76776
tp33
a(F20.0
I2
F1.60067
tp34
a(F20.0
I4
F1.64174
tp35
a(F20.0
I6
F1.6750700000000001
tp36
a(F20.0
I8
F1.69676
tp37
a(F20.0
I10
F1.71841
tp38
a(F20.0
I12
F1.7382299999999999
tp39
a(F20.0
I14
F1.7556400000000001
tp40
a(F22.0
I2
F1.5616699999999999
tp41
a(F22.0
I4
F1.60972
tp42
a(F22.0
I6
F1.6481399999999999
tp43
a(F22.0
I8
F1.6755599999999999
tp44
a(F22.0
I10
F1.70122
tp45
a(F22.0
I12
F1.72383
tp46
asS'mu'
p47
(lp48
sS'dimgs'
p49
(lp50
(I0
I3
I8
I5
tp51
a(I2
I10
I40
I394
tp52
a(I4
I21
I112
I8233
tp53
a(I6
I36
I240
I93850
tp54
a(I8
I55
I440
I736577
tp55
a(I10
I78
I728
I4455852
tp56
a(I12
I105
I1120
I22179295
tp57
a(I14
I136
I1632
I94734125
tp58
asS'rc'
p59
(lp60
(F16.0
I2
F1.8661884603651369
tp61
a(F16.0
I4
F1.8833331754100227
tp62
a(F16.0
I6
F1.8898251859894344
tp63
a(F16.0
I8
F1.9000668830333314
tp64
a(F16.0
I10
F1.9109530613021346
tp65
a(F16.0
I12
F1.9207373761396949
tp66
a(F16.0
I14
F1.9322344517164576
tp67
a(F18.0
I2
F1.8111838731890255
tp68
a(F18.0
I4
F1.8399631853925773
tp69
a(F18.0
I6
F1.8618064138089114
tp70
a(F18.0
I8
F1.8769461825262863
tp71
a(F18.0
I10
F1.8925222599483473
tp72
a(F18.0
I12
F1.9070014741735257
tp73
a(F18.0
I14
F1.9213537981329727
tp74
a(F20.0
I2
F1.7688327928043397
tp75
a(F20.0
I4
F1.8060828407357177
tp76
a(F20.0
I6
F1.8364325484209869
tp77
a(F20.0
I8
F1.856237995947718
tp78
a(F20.0
I10
F1.87604848767296
tp79
a(F20.0
I12
F1.8942197689022253
tp80
a(F20.0
I14
F1.9102085775118904
tp81
a(F22.0
I2
F1.7336199666882011
tp82
a(F22.0
I4
F1.7770265834815189
tp83
a(F22.0
I6
F1.8119024420757315
tp84
a(F22.0
I8
F1.8368795043769202
tp85
a(F22.0
I10
F1.860315695896801
tp86
a(F22.0
I12
F1.8810143191639981
tp87
asS'be2'
p88
(lp89
sS'e'
p90
(lp91
(F16.0
I2
F-18.659040000000001
tp92
a(F16.0
I4
F-23.665649999999999
tp93
a(F16.0
I6
F-26.076080000000001
tp94
a(F16.0
I8
F-27.448560000000001
tp95
a(F16.0
I10
F-28.270510000000002
tp96
a(F16.0
I12
F-28.724399999999999
tp97
a(F16.0
I14
F-28.968979999999998
tp98
a(F18.0
I2
F-19.303840000000001
tp99
a(F18.0
I4
F-24.003920000000001
tp100
a(F18.0
I6
F-26.374310000000001
tp101
a(F18.0
I8
F-27.66187
tp102
a(F18.0
I10
F-28.39423
tp103
a(F18.0
I12
F-28.768470000000001
tp104
a(F18.0
I14
F-28.966930000000001
tp105
a(F20.0
I2
F-19.40672
tp106
a(F20.0
I4
F-23.96163
tp107
a(F20.0
I6
F-26.438639999999999
tp108
a(F20.0
I8
F-27.699549999999999
tp109
a(F20.0
I10
F-28.374580000000002
tp110
a(F20.0
I12
F-28.72091
tp111
a(F20.0
I14
F-28.914180000000002
tp112
a(F22.0
I2
F-19.068729999999999
tp113
a(F22.0
I4
F-23.659749999999999
tp114
a(F22.0
I6
F-26.313600000000001
tp115
a(F22.0
I8
F-27.593900000000001
tp116
a(F22.0
I10
F-28.255510000000001
tp117
a(F22.0
I12
F-28.616250000000001
tp118
asS'rn'
p119
(lp120
(F16.0
I2
F2.1445599999999998
tp121
a(F16.0
I4
F2.2037100000000001
tp122
a(F16.0
I6
F2.2571099999999999
tp123
a(F16.0
I8
F2.30199
tp124
a(F16.0
I10
F2.3446899999999999
tp125
a(F16.0
I12
F2.3839199999999998
tp126
a(F16.0
I14
F2.4222999999999999
tp127
a(F18.0
I2
F2.0662400000000001
tp128
a(F18.0
I4
F2.1372100000000001
tp129
a(F18.0
I6
F2.20635
tp130
a(F18.0
I8
F2.2580800000000001
tp131
a(F18.0
I10
F2.30749
tp132
a(F18.0
I12
F2.35399
tp133
a(F18.0
I14
F2.3966099999999999
tp134
a(F20.0
I2
F2.0023900000000001
tp135
a(F20.0
I4
F2.08202
tp136
a(F20.0
I6
F2.15882
tp137
a(F20.0
I8
F2.2174299999999998
tp138
a(F20.0
I10
F2.2727900000000001
tp139
a(F20.0
I12
F2.3240599999999998
tp140
a(F20.0
I14
F2.36877
tp141
a(F22.0
I2
F1.94635
tp142
a(F22.0
I4
F2.0327899999999999
tp143
a(F22.0
I6
F2.1132
tp144
a(F22.0
I8
F2.1787700000000001
tp145
a(F22.0
I10
F2.23882
tp146
a(F22.0
I12
F2.2926700000000002
tp147
asS'obs'
p148
(dp149
g90
(lp150
(F16.0
I14
F-28.968979999999998
F28.914180000000002
F-0.24457999999999913
tp151
a(F18.0
I14
F-28.966930000000001
F0.054799999999996629
F-0.19846000000000075
tp152
a(F20.0
I14
F-28.914180000000002
F0.1522199999999998
F-0.19327000000000183
tp153
asg119
(lp154
(F16.0
I14
F2.4222999999999999
F2.36877
F0.038380000000000081
tp155
a(F18.0
I14
F2.3966099999999999
F0.053529999999999855
F0.04261999999999988
tp156
a(F20.0
I14
F2.36877
F0.061319999999999819
F0.04471000000000025
tp157
asg18
(lp158
(F16.0
I14
F1.7795799999999999
F1.7556400000000001
F0.01248999999999989
tp159
a(F18.0
I14
F1.76776
F0.02393999999999985
F0.015609999999999902
tp160
a(F20.0
I14
F1.7556400000000001
F0.028320000000000123
F0.017410000000000148
tp161
asg59
(lp162
(F16.0
I14
F1.9322344517164576
F1.9102085775118904
F0.011497075576762716
tp163
a(F18.0
I14
F1.9213537981329727
F0.022025874204567142
F0.014352323959446966
tp164
a(F20.0
I14
F1.9102085775118904
F0.02598715500952764
F0.015988808609665117
tp165
assS'eexc'
p166
(lp167
ss((I2
I6
tp168
g2
(g3
F1.8
tp169
tp170
(dp171
g7
(lp172
S'He6-srg'
p173
aS'He6n3lo_16_L1.8_t14_0_radii_SRG'
p174
aS'He6n3lo_18_L1.8_t14_0_radii_SRG'
p175
aS'He6n3lo_20_L1.8_t14_0_radii_SRG'
p176
aS'He6n3lo_22_L1.8_t14_0_radii_SRG'
p177
asg16
(lp178
sg18
(lp179
(F16.0
I2
F1.69937
tp180
a(F16.0
I4
F1.71218
tp181
a(F16.0
I6
F1.7193799999999999
tp182
a(F16.0
I8
F1.73438
tp183
a(F16.0
I10
F1.7500899999999999
tp184
a(F16.0
I12
F1.7643
tp185
a(F18.0
I2
F1.6409100000000001
tp186
a(F18.0
I4
F1.66886
tp187
a(F18.0
I6
F1.6936
tp188
a(F18.0
I8
F1.7145699999999999
tp189
a(F18.0
I10
F1.73455
tp190
a(F18.0
I12
F1.7518199999999999
tp191
a(F20.0
I2
F1.5961399999999999
tp192
a(F20.0
I4
F1.63524
tp193
a(F20.0
I6
F1.6697500000000001
tp194
a(F20.0
I8
F1.6957100000000001
tp195
a(F20.0
I10
F1.7190000000000001
tp196
a(F20.0
I12
F1.73854
tp197
a(F22.0
I2
F1.55874
tp198
a(F22.0
I4
F1.60605
tp199
a(F22.0
I6
F1.64591
tp200
a(F22.0
I8
F1.6767799999999999
tp201
a(F22.0
I10
F1.7028099999999999
tp202
a(F22.0
I12
F1.7241899999999999
tp203
asg47
(lp204
sg49
(lp205
(I0
I3
I8
I5
tp206
a(I2
I10
I40
I394
tp207
a(I4
I21
I112
I8233
tp208
a(I6
I36
I240
I93850
tp209
a(I8
I55
I440
I736577
tp210
a(I10
I78
I728
I4455852
tp211
a(I12
I105
I1120
I22179295
tp212
asg59
(lp213
(F16.0
I2
F1.8586240601315802
tp214
a(F16.0
I4
F1.8703436455368301
tp215
a(F16.0
I6
F1.8769370219589145
tp216
a(F16.0
I8
F1.8906874369921645
tp217
a(F16.0
I10
F1.9051089228965361
tp218
a(F16.0
I12
F1.9181708709080116
tp219
a(F18.0
I2
F1.8053283989623605
tp220
a(F18.0
I4
F1.8307699745189181
tp221
a(F18.0
I6
F1.8533499291822901
tp222
a(F18.0
I8
F1.8725317847502614
tp223
a(F18.0
I10
F1.8908433839162884
tp224
a(F18.0
I12
F1.9066982751342698
tp225
a(F20.0
I2
F1.7647345124975595
tp226
a(F20.0
I4
F1.8001763406955442
tp227
a(F20.0
I6
F1.8315813010893074
tp228
a(F20.0
I8
F1.8552782551682105
tp229
a(F20.0
I10
F1.876588926749809
tp230
a(F20.0
I12
F1.8945042442813369
tp231
a(F22.0
I2
F1.7309810477298704
tp232
a(F22.0
I4
F1.7737027942978496
tp233
a(F22.0
I6
F1.8098742299121229
tp234
a(F22.0
I8
F1.8379924288200971
tp235
a(F22.0
I10
F1.8617698289799411
tp236
a(F22.0
I12
F1.8813442417856439
tp237
asg88
(lp238
sg90
(lp239
(F16.0
I2
F-21.49982
tp240
a(F16.0
I4
F-25.973980000000001
tp241
a(F16.0
I6
F-27.821809999999999
tp242
a(F16.0
I8
F-28.727689999999999
tp243
a(F16.0
I10
F-29.19022
tp244
a(F16.0
I12
F-29.417169999999999
tp245
a(F18.0
I2
F-22.140720000000002
tp246
a(F18.0
I4
F-26.191299999999998
tp247
a(F18.0
I6
F-27.928909999999998
tp248
a(F18.0
I8
F-28.750309999999999
tp249
a(F18.0
I10
F-29.167580000000001
tp250
a(F18.0
I12
F-29.376750000000001
tp251
a(F20.0
I2
F-22.216840000000001
tp252
a(F20.0
I4
F-26.04373
tp253
a(F20.0
I6
F-27.833310000000001
tp254
a(F20.0
I8
F-28.650310000000001
tp255
a(F20.0
I10
F-29.06719
tp256
a(F20.0
I12
F-29.293389999999999
tp257
a(F22.0
I2
F-21.846720000000001
tp258
a(F22.0
I4
F-25.65887
tp259
a(F22.0
I6
F-27.583279999999998
tp260
a(F22.0
I8
F-28.456620000000001
tp261
a(F22.0
I10
F-28.91254
tp262
a(F22.0
I12
F-29.177600000000002
tp263
asg119
(lp264
(F16.0
I2
F2.1353399999999998
tp265
a(F16.0
I4
F2.1918700000000002
tp266
a(F16.0
I6
F2.2469899999999998
tp267
a(F16.0
I8
F2.2988900000000001
tp268
a(F16.0
I10
F2.34775
tp269
a(F16.0
I12
F2.3907799999999999
tp270
a(F18.0
I2
F2.0600100000000001
tp271
a(F18.0
I4
F2.1313
tp272
a(F18.0
I6
F2.2032799999999999
tp273
a(F18.0
I8
F2.2622
tp274
a(F18.0
I10
F2.3157700000000001
tp275
a(F18.0
I12
F2.36239
tp276
a(F20.0
I2
F1.99891
tp277
a(F20.0
I4
F2.0810499999999998
tp278
a(F20.0
I6
F2.16107
tp279
a(F20.0
I8
F2.2258200000000001
tp280
a(F20.0
I10
F2.2827999999999999
tp281
a(F20.0
I12
F2.3316499999999998
tp282
a(F22.0
I2
F1.9449799999999999
tp283
a(F22.0
I4
F2.0355500000000002
tp284
a(F22.0
I6
F2.1193
tp285
a(F22.0
I8
F2.1890800000000001
tp286
a(F22.0
I10
F2.2486700000000002
tp287
a(F22.0
I12
F2.2991000000000001
tp288
asg148
(dp289
g90
(lp290
(F16.0
I12
F-29.417169999999999
F29.177600000000002
F-0.22694999999999865
tp291
a(F18.0
I12
F-29.376750000000001
F0.12378
F-0.2091700000000003
tp292
a(F20.0
I12
F-29.293389999999999
F0.19914999999999949
F-0.22619999999999862
tp293
a(F22.0
I12
F-29.177600000000002
F29.177600000000002
F-0.26506000000000185
tp294
asg119
(lp295
(F16.0
I12
F2.3907799999999999
F2.2991000000000001
F0.043029999999999902
tp296
a(F18.0
I12
F2.36239
F0.059130000000000127
F0.046619999999999884
tp297
a(F20.0
I12
F2.3316499999999998
F0.063289999999999846
F0.048849999999999838
tp298
a(F22.0
I12
F2.2991000000000001
F2.2991000000000001
F0.050429999999999975
tp299
asg18
(lp300
(F16.0
I12
F1.7643
F1.7241899999999999
F0.014210000000000056
tp301
a(F18.0
I12
F1.7518199999999999
F0.025760000000000005
F0.017269999999999897
tp302
a(F20.0
I12
F1.73854
F0.027630000000000043
F0.019539999999999891
tp303
a(F22.0
I12
F1.7241899999999999
F1.7241899999999999
F0.021379999999999955
tp304
asg59
(lp305
(F16.0
I12
F1.9181708709080116
F1.8813442417856439
F0.013061948011475533
tp306
a(F18.0
I12
F1.9066982751342698
F0.023666626626674736
F0.015854891217981448
tp307
a(F20.0
I12
F1.8945042442813369
F0.025354033348625959
F0.017915317531527863
tp308
a(F22.0
I12
F1.8813442417856439
F1.8813442417856439
F0.019574412805702712
tp309
assg166
(lp310
ss((I2
I6
tp311
g2
(g3
F2.2000000000000002
tp312
tp313
(dp314
g7
(lp315
S'He6n3lo_16_L2.2_t14_0_radii_SRG'
p316
aS'He6n3lo_18_L2.2_t14_0_radii_SRG'
p317
aS'He6n3lo_20_L2.2_t14_0_radii_SRG'
p318
aS'He6n3lo_22_L2.2_t14_0_radii_SRG'
p319
asg16
(lp320
sg18
(lp321
(F16.0
I2
F1.7206399999999999
tp322
a(F16.0
I4
F1.74664
tp323
a(F16.0
I6
F1.7564500000000001
tp324
a(F16.0
I8
F1.7647200000000001
tp325
a(F16.0
I10
F1.7722500000000001
tp326
a(F16.0
I12
F1.77722
tp327
a(F18.0
I2
F1.6592199999999999
tp328
a(F18.0
I4
F1.6959599999999999
tp329
a(F18.0
I6
F1.72106
tp330
a(F18.0
I8
F1.7332399999999999
tp331
a(F18.0
I10
F1.74559
tp332
a(F18.0
I12
F1.75719
tp333
a(F20.0
I2
F1.6109899999999999
tp334
a(F20.0
I4
F1.6555299999999999
tp335
a(F20.0
I6
F1.6888000000000001
tp336
a(F20.0
I8
F1.70547
tp337
a(F20.0
I10
F1.72319
tp338
a(F20.0
I12
F1.7410699999999999
tp339
a(F22.0
I2
F1.5703499999999999
tp340
a(F22.0
I4
F1.6206100000000001
tp341
a(F22.0
I6
F1.65801
tp342
a(F22.0
I8
F1.68052
tp343
a(F22.0
I10
F1.70356
tp344
a(F22.0
I12
F1.72603
tp345
asg47
(lp346
sg49
(lp347
(I0
I3
I8
I5
tp348
a(I2
I10
I40
I394
tp349
a(I4
I21
I112
I8233
tp350
a(I6
I36
I240
I93850
tp351
a(I8
I55
I440
I736577
tp352
a(I10
I78
I728
I4455852
tp353
a(I12
I105
I1120
I22179295
tp354
asg59
(lp355
(F16.0
I2
F1.8780913208893755
tp356
a(F16.0
I4
F1.9019401382798564
tp357
a(F16.0
I6
F1.9109530613021346
tp358
a(F16.0
I8
F1.9185571866379172
tp359
a(F16.0
I10
F1.9254856692533444
tp360
a(F16.0
I12
F1.9300611203793521
tp361
a(F18.0
I2
F1.8219868299194699
tp362
a(F18.0
I4
F1.8555067560103358
tp363
a(F18.0
I6
F1.8784761173887732
tp364
a(F18.0
I8
F1.8896417378963661
tp365
a(F18.0
I10
F1.9009759199158731
tp366
a(F18.0
I12
F1.9116332535557128
tp367
a(F20.0
I2
F1.7781770946955759
tp368
a(F20.0
I4
F1.8186271143090327
tp369
a(F20.0
I6
F1.8489646940923452
tp370
a(F20.0
I8
F1.8642030256653914
tp371
a(F20.0
I10
F1.8804278173064766
tp372
a(F20.0
I12
F1.8968262294949423
tp373
a(F22.0
I2
F1.7414431149193474
tp374
a(F22.0
I4
F1.7868972472137283
tp375
a(F22.0
I6
F1.8208849936500657
tp376
a(F22.0
I8
F1.8414050261688764
tp377
a(F22.0
I10
F1.8624558178920647
tp378
a(F22.0
I12
F1.8830306850659655
tp379
asg88
(lp380
sg90
(lp381
(F16.0
I2
F-15.62341
tp382
a(F16.0
I4
F-20.936039999999998
tp383
a(F16.0
I6
F-23.800840000000001
tp384
a(F16.0
I8
F-25.634229999999999
tp385
a(F16.0
I10
F-26.897099999999998
tp386
a(F16.0
I12
F-27.697320000000001
tp387
a(F18.0
I2
F-16.167580000000001
tp388
a(F18.0
I4
F-21.30696
tp389
a(F18.0
I6
F-24.25778
tp390
a(F18.0
I8
F-26.071359999999999
tp391
a(F18.0
I10
F-27.248809999999999
tp392
a(F18.0
I12
F-27.915579999999999
tp393
a(F20.0
I2
F-16.203589999999998
tp394
a(F20.0
I4
F-21.310669999999998
tp395
a(F20.0
I6
F-24.479109999999999
tp396
a(F20.0
I8
F-26.3017
tp397
a(F20.0
I10
F-27.38719
tp398
a(F20.0
I12
F-27.963789999999999
tp399
a(F22.0
I2
F-15.818149999999999
tp400
a(F22.0
I4
F-21.05761
tp401
a(F22.0
I6
F-24.49925
tp402
a(F22.0
I8
F-26.34686
tp403
a(F22.0
I10
F-27.36421
tp404
a(F22.0
I12
F-27.906580000000002
tp405
asg119
(lp406
(F16.0
I2
F2.15991
tp407
a(F16.0
I4
F2.2239200000000001
tp408
a(F16.0
I6
F2.27887
tp409
a(F16.0
I8
F2.3172799999999998
tp410
a(F16.0
I10
F2.3515600000000001
tp411
a(F16.0
I12
F2.38226
tp412
a(F18.0
I2
F2.07918
tp413
a(F18.0
I4
F2.1522800000000002
tp414
a(F18.0
I6
F2.2204700000000002
tp415
a(F18.0
I8
F2.2641100000000001
tp416
a(F18.0
I10
F2.3054000000000001
tp417
a(F18.0
I12
F2.34666
tp418
a(F20.0
I2
F2.0126900000000001
tp419
a(F20.0
I4
F2.0922999999999998
tp420
a(F20.0
I6
F2.1664400000000001
tp421
a(F20.0
I8
F2.2166700000000001
tp422
a(F20.0
I10
F2.2658100000000001
tp423
a(F20.0
I12
F2.3155899999999998
tp424
a(F22.0
I2
F1.9541599999999999
tp425
a(F22.0
I4
F2.0389499999999998
tp426
a(F22.0
I6
F2.1156100000000002
tp427
a(F22.0
I8
F2.1737199999999999
tp428
a(F22.0
I10
F2.2300800000000001
tp429
a(F22.0
I12
F2.2850799999999998
tp430
asg148
(dp431
g90
(lp432
(F16.0
I12
F-27.697320000000001
F27.906580000000002
F-0.80022000000000304
tp433
a(F18.0
I12
F-27.915579999999999
F0.26646999999999821
F-0.66676999999999964
tp434
a(F20.0
I12
F-27.963789999999999
F0.057209999999997763
F-0.57659999999999911
tp435
a(F22.0
I12
F-27.906580000000002
F27.906580000000002
F-0.5423700000000018
tp436
asg119
(lp437
(F16.0
I12
F2.38226
F2.2850799999999998
F0.03069999999999995
tp438
a(F18.0
I12
F2.34666
F0.066670000000000229
F0.041259999999999852
tp439
a(F20.0
I12
F2.3155899999999998
F0.06158000000000019
F0.049779999999999713
tp440
a(F22.0
I12
F2.2850799999999998
F2.2850799999999998
F0.054999999999999716
tp441
asg18
(lp442
(F16.0
I12
F1.77722
F1.72603
F0.0049699999999999189
tp443
a(F18.0
I12
F1.75719
F0.036150000000000126
F0.011600000000000055
tp444
a(F20.0
I12
F1.7410699999999999
F0.031160000000000077
F0.017879999999999896
tp445
a(F22.0
I12
F1.72603
F1.72603
F0.02246999999999999
tp446
asg59
(lp447
(F16.0
I12
F1.9300611203793521
F1.8830306850659655
F0.0045754511260076569
tp448
a(F18.0
I12
F1.9116332535557128
F0.033234890884409785
F0.010657333639839672
tp449
a(F20.0
I12
F1.8968262294949423
F0.028602568489747293
F0.016398412188465716
tp450
a(F22.0
I12
F1.8830306850659655
F1.8830306850659655
F0.020574867173900779
tp451
assg166
(lp452
ss.